target datalayout = "e-m:e-p270:32:32-p271:32:32-p272:64:64-i64:64-i128:128-f80:128-n8:16:32:64-S128"
target triple = "x86_64-pc-linux-gnu"

%struct.AVFormatContext = type { ptr, ptr, ptr, ptr, ptr, i32, i32, ptr, i32, ptr, i32, ptr, ptr, i64, i64, i64, i32, i32, i32, i64, i64, ptr, i32, i32, ptr, i32, i32, i32, i32, ptr, i64, i32, i32, %struct.AVIOInterruptCB, i32, i32, i32, i32, i64, i32, i32, i32, i32, i32, i32, i32, i32, i32, i32, i32, i32, i64, i32, i32, i32, i32, i32, ptr, ptr, ptr, ptr, i32, ptr, ptr, ptr, ptr, i32, ptr, ptr, i64, ptr, ptr, ptr, i64 }
%struct.AVIOInterruptCB = type { ptr, ptr }
%struct.AVPacket = type { ptr, i64, i64, ptr, i32, i32, i32, ptr, i32, i64, i64, ptr, ptr, %struct.AVRational }
%struct.AVRational = type { i32, i32 }
%struct.AVStream = type { ptr, i32, i32, ptr, ptr, %struct.AVRational, i64, i64, i64, i32, i32, %struct.AVRational, ptr, %struct.AVRational, %struct.AVPacket, i32, %struct.AVRational, i32 }
%struct.MXFContext = type { ptr, i64, i32, %struct.AVRational, i32, ptr, i32, i64, i8, i32, ptr, i32, i32, i64, %struct.AVTimecode, ptr, i32, i32, i32, i64, i32, [16 x i8], i32, i32, i32, %struct.AVRational, i32, i32, i32, [127 x i8], %struct.MXFStreamContext }
%struct.AVTimecode = type { i32, i32, %struct.AVRational, i32 }
%struct.MXFStreamContext = type { i64, [16 x i8], i32, ptr, ptr, i32, i32, i32, i32, i32, i32, i32, i32, i32, %struct.AVRational, i32, i32, i32, i32, i32, i32, i32, i32, i32, i32, %struct.j2k_info_t }
%struct.j2k_info_t = type { i16, i16, i32, i32, i32, i32, i32, i32, i32, i32, [12 x i8] }
%struct.MXFPackage = type { ptr, i32, i32, ptr }

@ff_log2_tab = external constant [256 x i8], align 16
@header_metadata_key = internal constant [13 x i8] c"\06\0E+4\02S\01\01\0D\01\01\01\01", align 1
@uuid_base = internal constant [10 x i8] c"\AD\ABD$/%M\C7\92\FF", align 1

; Function Attrs: alwaysinline nounwind willreturn memory(none) uwtable
define internal i32 @ff_log2_c(i32 noundef %0) #5 {
  %2 = alloca i32, align 4
  %3 = alloca i32, align 4
  store i32 %0, ptr %2, align 4, !tbaa !57
  call void @llvm.lifetime.start.p0(i64 4, ptr %3) #13
  store i32 0, ptr %3, align 4, !tbaa !57
  %4 = load i32, ptr %2, align 4, !tbaa !57
  %5 = and i32 %4, -65536
  %6 = icmp ne i32 %5, 0
  br i1 %6, label %7, label %12

7:                                                ; preds = %1
  %8 = load i32, ptr %2, align 4, !tbaa !57
  %9 = lshr i32 %8, 16
  store i32 %9, ptr %2, align 4, !tbaa !57
  %10 = load i32, ptr %3, align 4, !tbaa !57
  %11 = add nsw i32 %10, 16
  store i32 %11, ptr %3, align 4, !tbaa !57
  br label %12

12:                                               ; preds = %7, %1
  %13 = load i32, ptr %2, align 4, !tbaa !57
  %14 = and i32 %13, 65280
  %15 = icmp ne i32 %14, 0
  br i1 %15, label %16, label %21

16:                                               ; preds = %12
  %17 = load i32, ptr %2, align 4, !tbaa !57
  %18 = lshr i32 %17, 8
  store i32 %18, ptr %2, align 4, !tbaa !57
  %19 = load i32, ptr %3, align 4, !tbaa !57
  %20 = add nsw i32 %19, 8
  store i32 %20, ptr %3, align 4, !tbaa !57
  br label %21

21:                                               ; preds = %16, %12
  %22 = load i32, ptr %2, align 4, !tbaa !57
  %23 = zext i32 %22 to i64
  %24 = getelementptr inbounds nuw [256 x i8], ptr @ff_log2_tab, i64 0, i64 %23
  %25 = load i8, ptr %24, align 1, !tbaa !132
  %26 = zext i8 %25 to i32
  %27 = load i32, ptr %3, align 4, !tbaa !57
  %28 = add nsw i32 %27, %26
  store i32 %28, ptr %3, align 4, !tbaa !57
  %29 = load i32, ptr %3, align 4, !tbaa !57
  call void @llvm.lifetime.end.p0(i64 4, ptr %3) #13
  ret i32 %29
}

; Function Attrs: nounwind uwtable
define internal i32 @klv_ber_length(i64 noundef %0) #0 {
  %2 = alloca i32, align 4
  %3 = alloca i64, align 8
  store i64 %0, ptr %3, align 8, !tbaa !80
  %4 = load i64, ptr %3, align 8, !tbaa !80
  %5 = icmp ult i64 %4, 128
  br i1 %5, label %6, label %7

6:                                                ; preds = %1
  store i32 1, ptr %2, align 4
  br label %13

7:                                                ; preds = %1
  %8 = load i64, ptr %3, align 8, !tbaa !80
  %9 = trunc i64 %8 to i32
  %10 = call i32 @ff_log2_c(i32 noundef %9) #14
  %11 = ashr i32 %10, 3
  %12 = add nsw i32 %11, 2
  store i32 %12, ptr %2, align 4
  br label %13

13:                                               ; preds = %7, %6
  %14 = load i32, ptr %2, align 4
  ret i32 %14
}

; Function Attrs: nounwind uwtable
define internal void @mxf_write_uuid(ptr noundef %0, i32 noundef %1, i32 noundef %2) #0 {
  %4 = alloca ptr, align 8
  %5 = alloca i32, align 4
  %6 = alloca i32, align 4
  store ptr %0, ptr %4, align 8, !tbaa !31
  store i32 %1, ptr %5, align 4, !tbaa !57
  store i32 %2, ptr %6, align 4, !tbaa !57
  %7 = load ptr, ptr %4, align 8, !tbaa !31
  call void @avio_write(ptr noundef %7, ptr noundef @uuid_base, i32 noundef 10)
  %8 = load ptr, ptr %4, align 8, !tbaa !31
  %9 = load i32, ptr %5, align 4, !tbaa !57
  call void @avio_wb16(ptr noundef %8, i32 noundef %9)
  %10 = load ptr, ptr %4, align 8, !tbaa !31
  %11 = load i32, ptr %6, align 4, !tbaa !57
  call void @avio_wb32(ptr noundef %10, i32 noundef %11)
  ret void
}

; Function Attrs: nounwind uwtable
define internal i32 @klv_encode_ber_length(ptr noundef %0, i64 noundef %1) #0 {
  %3 = alloca i32, align 4
  %4 = alloca ptr, align 8
  %5 = alloca i64, align 8
  %6 = alloca i32, align 4
  %7 = alloca i32, align 4
  store ptr %0, ptr %4, align 8, !tbaa !31
  store i64 %1, ptr %5, align 8, !tbaa !80
  call void @llvm.lifetime.start.p0(i64 4, ptr %6) #13
  %8 = load i64, ptr %5, align 8, !tbaa !80
  %9 = call i32 @klv_ber_length(i64 noundef %8)
  store i32 %9, ptr %6, align 4, !tbaa !57
  %10 = load i32, ptr %6, align 4, !tbaa !57
  %11 = icmp eq i32 %10, 1
  br i1 %11, label %12, label %16

12:                                               ; preds = %2
  %13 = load ptr, ptr %4, align 8, !tbaa !31
  %14 = load i64, ptr %5, align 8, !tbaa !80
  %15 = trunc i64 %14 to i32
  call void @avio_w8(ptr noundef %13, i32 noundef %15)
  store i32 1, ptr %3, align 4
  store i32 1, ptr %7, align 4
  br label %37

16:                                               ; preds = %2
  %17 = load i32, ptr %6, align 4, !tbaa !57
  %18 = add nsw i32 %17, -1
  store i32 %18, ptr %6, align 4, !tbaa !57
  %19 = load ptr, ptr %4, align 8, !tbaa !31
  %20 = load i32, ptr %6, align 4, !tbaa !57
  %21 = add nsw i32 128, %20
  call void @avio_w8(ptr noundef %19, i32 noundef %21)
  br label %22

22:                                               ; preds = %25, %16
  %23 = load i32, ptr %6, align 4, !tbaa !57
  %24 = icmp ne i32 %23, 0
  br i1 %24, label %25, label %36

25:                                               ; preds = %22
  %26 = load i32, ptr %6, align 4, !tbaa !57
  %27 = add nsw i32 %26, -1
  store i32 %27, ptr %6, align 4, !tbaa !57
  %28 = load ptr, ptr %4, align 8, !tbaa !31
  %29 = load i64, ptr %5, align 8, !tbaa !80
  %30 = load i32, ptr %6, align 4, !tbaa !57
  %31 = mul nsw i32 8, %30
  %32 = zext i32 %31 to i64
  %33 = lshr i64 %29, %32
  %34 = and i64 %33, 255
  %35 = trunc i64 %34 to i32
  call void @avio_w8(ptr noundef %28, i32 noundef %35)
  br label %22, !llvm.loop !253

36:                                               ; preds = %22
  store i32 0, ptr %3, align 4
  store i32 1, ptr %7, align 4
  br label %37

37:                                               ; preds = %36, %12
  call void @llvm.lifetime.end.p0(i64 4, ptr %6) #13
  %38 = load i32, ptr %3, align 4
  ret i32 %38
}

; Function Attrs: nounwind uwtable
define internal void @mxf_write_metadata_key(ptr noundef %0, i32 noundef %1) #0 {
  %3 = alloca ptr, align 8
  %4 = alloca i32, align 4
  store ptr %0, ptr %3, align 8, !tbaa !31
  store i32 %1, ptr %4, align 4, !tbaa !57
  %5 = load ptr, ptr %3, align 8, !tbaa !31
  call void @avio_write(ptr noundef %5, ptr noundef @header_metadata_key, i32 noundef 13)
  %6 = load ptr, ptr %3, align 8, !tbaa !31
  %7 = load i32, ptr %4, align 4, !tbaa !57
  call void @avio_wb24(ptr noundef %6, i32 noundef %7)
  ret void
}

; Function Attrs: nounwind uwtable
define internal void @mxf_write_track(ptr noundef %0, ptr noundef %1, ptr noundef %2) #0 {
  %4 = alloca ptr, align 8
  %5 = alloca ptr, align 8
  %6 = alloca ptr, align 8
  %7 = alloca ptr, align 8
  %8 = alloca ptr, align 8
  %9 = alloca ptr, align 8
  store ptr %0, ptr %4, align 8, !tbaa !4
  store ptr %1, ptr %5, align 8, !tbaa !38
  store ptr %2, ptr %6, align 8, !tbaa !255
  call void @llvm.lifetime.start.p0(i64 8, ptr %7) #13
  %10 = load ptr, ptr %4, align 8, !tbaa !4
  %11 = getelementptr inbounds nuw %struct.AVFormatContext, ptr %10, i32 0, i32 3
  %12 = load ptr, ptr %11, align 8, !tbaa !11
  store ptr %12, ptr %7, align 8, !tbaa !28
  call void @llvm.lifetime.start.p0(i64 8, ptr %8) #13
  %13 = load ptr, ptr %4, align 8, !tbaa !4
  %14 = getelementptr inbounds nuw %struct.AVFormatContext, ptr %13, i32 0, i32 4
  %15 = load ptr, ptr %14, align 8, !tbaa !30
  store ptr %15, ptr %8, align 8, !tbaa !31
  call void @llvm.lifetime.start.p0(i64 8, ptr %9) #13
  %16 = load ptr, ptr %5, align 8, !tbaa !38
  %17 = getelementptr inbounds nuw %struct.AVStream, ptr %16, i32 0, i32 4
  %18 = load ptr, ptr %17, align 8, !tbaa !40
  store ptr %18, ptr %9, align 8, !tbaa !43
  %19 = load ptr, ptr %8, align 8, !tbaa !31
  call void @mxf_write_metadata_key(ptr noundef %19, i32 noundef 80640)
  br label %20

20:                                               ; preds = %3
  br label %21

21:                                               ; preds = %20
  br label %22

22:                                               ; preds = %21
  %23 = load ptr, ptr %8, align 8, !tbaa !31
  %24 = call i32 @klv_encode_ber_length(ptr noundef %23, i64 noundef 80)
  %25 = load ptr, ptr %4, align 8, !tbaa !4
  call void @mxf_write_local_tag(ptr noundef %25, i32 noundef 16, i32 noundef 15370)
  %26 = load ptr, ptr %8, align 8, !tbaa !31
  %27 = load ptr, ptr %7, align 8, !tbaa !28
  %28 = getelementptr inbounds nuw %struct.MXFContext, ptr %27, i32 0, i32 27
  %29 = load i32, ptr %28, align 4, !tbaa !249
  call void @mxf_write_uuid(ptr noundef %26, i32 noundef 9, i32 noundef %29)
  br label %30

30:                                               ; preds = %22
  br label %31

31:                                               ; preds = %30
  br label %32

32:                                               ; preds = %31
  %33 = load ptr, ptr %4, align 8, !tbaa !4
  call void @mxf_write_local_tag(ptr noundef %33, i32 noundef 4, i32 noundef 18433)
  %34 = load ptr, ptr %8, align 8, !tbaa !31
  %35 = load ptr, ptr %5, align 8, !tbaa !38
  %36 = getelementptr inbounds nuw %struct.AVStream, ptr %35, i32 0, i32 1
  %37 = load i32, ptr %36, align 8, !tbaa !65
  %38 = add nsw i32 %37, 2
  call void @avio_wb32(ptr noundef %34, i32 noundef %38)
  %39 = load ptr, ptr %4, align 8, !tbaa !4
  call void @mxf_write_local_tag(ptr noundef %39, i32 noundef 4, i32 noundef 18436)
  %40 = load ptr, ptr %6, align 8, !tbaa !255
  %41 = getelementptr inbounds nuw %struct.MXFPackage, ptr %40, i32 0, i32 1
  %42 = load i32, ptr %41, align 8, !tbaa !242
  %43 = icmp eq i32 %42, 1
  br i1 %43, label %44, label %46

44:                                               ; preds = %32
  %45 = load ptr, ptr %8, align 8, !tbaa !31
  call void @avio_wb32(ptr noundef %45, i32 noundef 0)
  br label %52

46:                                               ; preds = %32
  %47 = load ptr, ptr %8, align 8, !tbaa !31
  %48 = load ptr, ptr %9, align 8, !tbaa !43
  %49 = getelementptr inbounds nuw %struct.MXFStreamContext, ptr %48, i32 0, i32 1
  %50 = getelementptr inbounds [16 x i8], ptr %49, i64 0, i64 0
  %51 = getelementptr inbounds i8, ptr %50, i64 12
  call void @avio_write(ptr noundef %47, ptr noundef %51, i32 noundef 4)
  br label %52

52:                                               ; preds = %46, %44
  %53 = load ptr, ptr %4, align 8, !tbaa !4
  call void @mxf_write_local_tag(ptr noundef %53, i32 noundef 8, i32 noundef 19201)
  %54 = load ptr, ptr %5, align 8, !tbaa !38
  %55 = load ptr, ptr %7, align 8, !tbaa !28
  %56 = getelementptr inbounds nuw %struct.MXFContext, ptr %55, i32 0, i32 15
  %57 = load ptr, ptr %56, align 8, !tbaa !139
  %58 = icmp eq ptr %54, %57
  br i1 %58, label %59, label %77

59:                                               ; preds = %52
  %60 = load ptr, ptr %4, align 8, !tbaa !4
  %61 = getelementptr inbounds nuw %struct.AVFormatContext, ptr %60, i32 0, i32 2
  %62 = load ptr, ptr %61, align 8, !tbaa !53
  %63 = icmp eq ptr %62, @ff_mxf_opatom_muxer
  br i1 %63, label %64, label %77

64:                                               ; preds = %59
  %65 = load ptr, ptr %8, align 8, !tbaa !31
  %66 = load ptr, ptr %7, align 8, !tbaa !28
  %67 = getelementptr inbounds nuw %struct.MXFContext, ptr %66, i32 0, i32 14
  %68 = getelementptr inbounds nuw %struct.AVTimecode, ptr %67, i32 0, i32 2
  %69 = getelementptr inbounds nuw %struct.AVRational, ptr %68, i32 0, i32 0
  %70 = load i32, ptr %69, align 8, !tbaa !125
  call void @avio_wb32(ptr noundef %65, i32 noundef %70)
  %71 = load ptr, ptr %8, align 8, !tbaa !31
  %72 = load ptr, ptr %7, align 8, !tbaa !28
  %73 = getelementptr inbounds nuw %struct.MXFContext, ptr %72, i32 0, i32 14
  %74 = getelementptr inbounds nuw %struct.AVTimecode, ptr %73, i32 0, i32 2
  %75 = getelementptr inbounds nuw %struct.AVRational, ptr %74, i32 0, i32 1
  %76 = load i32, ptr %75, align 4, !tbaa !126
  call void @avio_wb32(ptr noundef %71, i32 noundef %76)
  br label %88

77:                                               ; preds = %59, %52
  %78 = load ptr, ptr %8, align 8, !tbaa !31
  %79 = load ptr, ptr %7, align 8, !tbaa !28
  %80 = getelementptr inbounds nuw %struct.MXFContext, ptr %79, i32 0, i32 3
  %81 = getelementptr inbounds nuw %struct.AVRational, ptr %80, i32 0, i32 1
  %82 = load i32, ptr %81, align 4, !tbaa !114
  call void @avio_wb32(ptr noundef %78, i32 noundef %82)
  %83 = load ptr, ptr %8, align 8, !tbaa !31
  %84 = load ptr, ptr %7, align 8, !tbaa !28
  %85 = getelementptr inbounds nuw %struct.MXFContext, ptr %84, i32 0, i32 3
  %86 = getelementptr inbounds nuw %struct.AVRational, ptr %85, i32 0, i32 0
  %87 = load i32, ptr %86, align 4, !tbaa !113
  call void @avio_wb32(ptr noundef %83, i32 noundef %87)
  br label %88

88:                                               ; preds = %77, %64
  %89 = load ptr, ptr %4, align 8, !tbaa !4
  call void @mxf_write_local_tag(ptr noundef %89, i32 noundef 8, i32 noundef 19202)
  %90 = load ptr, ptr %8, align 8, !tbaa !31
  call void @avio_wb64(ptr noundef %90, i64 noundef 0)
  %91 = load ptr, ptr %4, align 8, !tbaa !4
  call void @mxf_write_local_tag(ptr noundef %91, i32 noundef 16, i32 noundef 18435)
  %92 = load ptr, ptr %8, align 8, !tbaa !31
  %93 = load ptr, ptr %7, align 8, !tbaa !28
  %94 = getelementptr inbounds nuw %struct.MXFContext, ptr %93, i32 0, i32 27
  %95 = load i32, ptr %94, align 4, !tbaa !249
  call void @mxf_write_uuid(ptr noundef %92, i32 noundef 6, i32 noundef %95)
  call void @llvm.lifetime.end.p0(i64 8, ptr %9) #13
  call void @llvm.lifetime.end.p0(i64 8, ptr %8) #13
  call void @llvm.lifetime.end.p0(i64 8, ptr %7) #13
  ret void
}