; Function Attrs: nounwind uwtable
define internal fastcc void @mxf_write_track(ptr noundef readonly captures(none) %0, ptr noundef readonly captures(address) %1, ptr noundef nonnull readonly captures(none) %2) unnamed_addr #0 {
  %4 = getelementptr inbounds nuw i8, ptr %0, i64 24
  %5 = load ptr, ptr %4, align 8, !tbaa !4
  %6 = getelementptr inbounds nuw i8, ptr %0, i64 32
  %7 = load ptr, ptr %6, align 8, !tbaa !24
  %8 = getelementptr inbounds nuw i8, ptr %1, i64 24
  %9 = load ptr, ptr %8, align 8, !tbaa !33
  tail call void @avio_write(ptr noundef %7, ptr noundef nonnull @header_metadata_key, i32 noundef 13) #14
  tail call void @avio_wb24(ptr noundef %7, i32 noundef 80640) #14
  tail call void @avio_w8(ptr noundef %7, i32 noundef 80) #14
  %.val42 = load ptr, ptr %4, align 8, !tbaa !4
  %.val43 = load ptr, ptr %6, align 8, !tbaa !24
  tail call fastcc void @mxf_write_local_tag(ptr %.val42, ptr %.val43, i32 noundef 16, i32 noundef 15370)
  %10 = getelementptr inbounds nuw i8, ptr %5, i64 188
  %11 = load i32, ptr %10, align 4, !tbaa !250
  tail call void @avio_write(ptr noundef %7, ptr noundef nonnull @uuid_base, i32 noundef 10) #14
  tail call void @avio_wb16(ptr noundef %7, i32 noundef 9) #14
  tail call void @avio_wb32(ptr noundef %7, i32 noundef %11) #14
  %.val40 = load ptr, ptr %4, align 8, !tbaa !4
  %.val41 = load ptr, ptr %6, align 8, !tbaa !24
  tail call fastcc void @mxf_write_local_tag(ptr %.val40, ptr %.val41, i32 noundef 4, i32 noundef 18433)
  %12 = getelementptr inbounds nuw i8, ptr %1, i64 8
  %13 = load i32, ptr %12, align 8, !tbaa !120
  %14 = add nsw i32 %13, 2
  tail call void @avio_wb32(ptr noundef %7, i32 noundef %14) #14
  %.val38 = load ptr, ptr %4, align 8, !tbaa !4
  %.val39 = load ptr, ptr %6, align 8, !tbaa !24
  tail call fastcc void @mxf_write_local_tag(ptr %.val38, ptr %.val39, i32 noundef 4, i32 noundef 18436)
  %15 = getelementptr inbounds nuw i8, ptr %2, i64 8
  %16 = load i32, ptr %15, align 8, !tbaa !240
  %17 = icmp eq i32 %16, 1
  br i1 %17, label %18, label %19

18:                                               ; preds = %3
  tail call void @avio_wb32(ptr noundef %7, i32 noundef 0) #14
  br label %21

19:                                               ; preds = %3
  %20 = getelementptr inbounds nuw i8, ptr %9, i64 20
  tail call void @avio_write(ptr noundef %7, ptr noundef nonnull %20, i32 noundef 4) #14
  br label %21

21:                                               ; preds = %19, %18
  %.val36 = load ptr, ptr %4, align 8, !tbaa !4
  %.val37 = load ptr, ptr %6, align 8, !tbaa !24
  tail call fastcc void @mxf_write_local_tag(ptr %.val36, ptr %.val37, i32 noundef 8, i32 noundef 19201)
  %22 = getelementptr inbounds nuw i8, ptr %5, i64 112
  %23 = load ptr, ptr %22, align 8, !tbaa !222
  %24 = icmp eq ptr %1, %23
  br i1 %24, label %25, label %33

25:                                               ; preds = %21
  %26 = getelementptr inbounds nuw i8, ptr %0, i64 16
  %27 = load ptr, ptr %26, align 8, !tbaa !44
  %28 = icmp eq ptr %27, @ff_mxf_opatom_muxer
  br i1 %28, label %29, label %33

29:                                               ; preds = %25
  %30 = getelementptr inbounds nuw i8, ptr %5, i64 96
  %31 = load i32, ptr %30, align 8, !tbaa !201
  tail call void @avio_wb32(ptr noundef %7, i32 noundef %31) #14
  %32 = getelementptr inbounds nuw i8, ptr %5, i64 100
  br label %37

33:                                               ; preds = %25, %21
  %34 = getelementptr inbounds nuw i8, ptr %5, i64 20
  %35 = getelementptr inbounds nuw i8, ptr %5, i64 24
  %36 = load i32, ptr %35, align 4, !tbaa !195
  tail call void @avio_wb32(ptr noundef %7, i32 noundef %36) #14
  br label %37

37:                                               ; preds = %33, %29
  %.sink.in = phi ptr [ %34, %33 ], [ %32, %29 ]
  %.sink = load i32, ptr %.sink.in, align 4, !tbaa !62
  tail call void @avio_wb32(ptr noundef %7, i32 noundef %.sink) #14
  %.val34 = load ptr, ptr %4, align 8, !tbaa !4
  %.val35 = load ptr, ptr %6, align 8, !tbaa !24
  tail call fastcc void @mxf_write_local_tag(ptr %.val34, ptr %.val35, i32 noundef 8, i32 noundef 19202)
  tail call void @avio_wb64(ptr noundef %7, i64 noundef 0) #14
  %.val = load ptr, ptr %4, align 8, !tbaa !4
  %.val33 = load ptr, ptr %6, align 8, !tbaa !24
  tail call fastcc void @mxf_write_local_tag(ptr %.val, ptr %.val33, i32 noundef 16, i32 noundef 18435)
  %38 = load i32, ptr %10, align 4, !tbaa !250
  tail call void @avio_write(ptr noundef %7, ptr noundef nonnull @uuid_base, i32 noundef 10) #14
  tail call void @avio_wb16(ptr noundef %7, i32 noundef 6) #14
  tail call void @avio_wb32(ptr noundef %7, i32 noundef %38) #14
  ret void
}